; Function Attrs: mustprogress nofree norecurse nosync nounwind willreturn memory(argmem: write) uwtable
define dso_local void @_ZN3net20GeneralLossAlgorithmC2Ev(ptr nocapture noundef nonnull writeonly align 8 dereferenceable(32) %this) unnamed_addr #0 align 2 personality ptr @__gxx_personality_v0 {
invoke.cont:
  store ptr getelementptr inbounds ({ [8 x ptr] }, ptr @_ZTVN3net20GeneralLossAlgorithmE, i64 0, i32 0, i64 2), ptr %this, align 8
  %loss_detection_timeout_ = getelementptr inbounds i8, ptr %this, i64 8
  %reordering_shift_ = getelementptr inbounds i8, ptr %this, i64 28
  tail call void @llvm.memset.p0.i64(ptr noundef nonnull align 8 dereferenceable(20) %loss_detection_timeout_, i8 0, i64 20, i1 false)
  store i32 2, ptr %reordering_shift_, align 4
  ret void
}